target datalayout = "e-m:e-p270:32:32-p271:32:32-p272:64:64-i64:64-i128:128-f80:128-n8:16:32:64-S128"
target triple = "x86_64-unknown-linux-gnu"

; Function Attrs: nounwind sspstrong uwtable
define internal void @e1000x_inc_reg_if_not_full(ptr noundef %mac, i32 noundef %index) #0 {
entry:
  %mac.addr = alloca ptr, align 8
  %index.addr = alloca i32, align 4
  store ptr %mac, ptr %mac.addr, align 8
  store i32 %index, ptr %index.addr, align 4
  %0 = load ptr, ptr %mac.addr, align 8
  %1 = load i32, ptr %index.addr, align 4
  %idxprom = sext i32 %1 to i64
  %arrayidx = getelementptr i32, ptr %0, i64 %idxprom
  %2 = load i32, ptr %arrayidx, align 4
  %cmp = icmp ne i32 %2, -1
  br i1 %cmp, label %if.then, label %if.end

if.then:                                          ; preds = %entry
  %3 = load ptr, ptr %mac.addr, align 8
  %4 = load i32, ptr %index.addr, align 4
  %idxprom1 = sext i32 %4 to i64
  %arrayidx2 = getelementptr i32, ptr %3, i64 %idxprom1
  %5 = load i32, ptr %arrayidx2, align 4
  %inc = add i32 %5, 1
  store i32 %inc, ptr %arrayidx2, align 4
  br label %if.end

if.end:                                           ; preds = %if.then, %entry
  ret void
}

; Function Attrs: nounwind sspstrong uwtable
define dso_local void @e1000x_increase_size_stats(ptr noundef %mac, ptr noundef %size_regs, i32 noundef %size) #0 {
entry:
  %mac.addr = alloca ptr, align 8
  %size_regs.addr = alloca ptr, align 8
  %size.addr = alloca i32, align 4
  store ptr %mac, ptr %mac.addr, align 8
  store ptr %size_regs, ptr %size_regs.addr, align 8
  store i32 %size, ptr %size.addr, align 4
  %0 = load i32, ptr %size.addr, align 4
  %cmp = icmp sgt i32 %0, 1023
  br i1 %cmp, label %if.then, label %if.else

if.then:                                          ; preds = %entry
  %1 = load ptr, ptr %mac.addr, align 8
  %2 = load ptr, ptr %size_regs.addr, align 8
  %arrayidx = getelementptr i32, ptr %2, i64 5
  %3 = load i32, ptr %arrayidx, align 4
  call void @e1000x_inc_reg_if_not_full(ptr noundef %1, i32 noundef %3)
  br label %if.end24

if.else:                                          ; preds = %entry
  %4 = load i32, ptr %size.addr, align 4
  %cmp1 = icmp sgt i32 %4, 511
  br i1 %cmp1, label %if.then2, label %if.else4

if.then2:                                         ; preds = %if.else
  %5 = load ptr, ptr %mac.addr, align 8
  %6 = load ptr, ptr %size_regs.addr, align 8
  %arrayidx3 = getelementptr i32, ptr %6, i64 4
  %7 = load i32, ptr %arrayidx3, align 4
  call void @e1000x_inc_reg_if_not_full(ptr noundef %5, i32 noundef %7)
  br label %if.end23

if.else4:                                         ; preds = %if.else
  %8 = load i32, ptr %size.addr, align 4
  %cmp5 = icmp sgt i32 %8, 255
  br i1 %cmp5, label %if.then6, label %if.else8

if.then6:                                         ; preds = %if.else4
  %9 = load ptr, ptr %mac.addr, align 8
  %10 = load ptr, ptr %size_regs.addr, align 8
  %arrayidx7 = getelementptr i32, ptr %10, i64 3
  %11 = load i32, ptr %arrayidx7, align 4
  call void @e1000x_inc_reg_if_not_full(ptr noundef %9, i32 noundef %11)
  br label %if.end22

if.else8:                                         ; preds = %if.else4
  %12 = load i32, ptr %size.addr, align 4
  %cmp9 = icmp sgt i32 %12, 127
  br i1 %cmp9, label %if.then10, label %if.else12

if.then10:                                        ; preds = %if.else8
  %13 = load ptr, ptr %mac.addr, align 8
  %14 = load ptr, ptr %size_regs.addr, align 8
  %arrayidx11 = getelementptr i32, ptr %14, i64 2
  %15 = load i32, ptr %arrayidx11, align 4
  call void @e1000x_inc_reg_if_not_full(ptr noundef %13, i32 noundef %15)
  br label %if.end21

if.else12:                                        ; preds = %if.else8
  %16 = load i32, ptr %size.addr, align 4
  %cmp13 = icmp sgt i32 %16, 64
  br i1 %cmp13, label %if.then14, label %if.else16

if.then14:                                        ; preds = %if.else12
  %17 = load ptr, ptr %mac.addr, align 8
  %18 = load ptr, ptr %size_regs.addr, align 8
  %arrayidx15 = getelementptr i32, ptr %18, i64 1
  %19 = load i32, ptr %arrayidx15, align 4
  call void @e1000x_inc_reg_if_not_full(ptr noundef %17, i32 noundef %19)
  br label %if.end20

if.else16:                                        ; preds = %if.else12
  %20 = load i32, ptr %size.addr, align 4
  %cmp17 = icmp eq i32 %20, 64
  br i1 %cmp17, label %if.then18, label %if.end

if.then18:                                        ; preds = %if.else16
  %21 = load ptr, ptr %mac.addr, align 8
  %22 = load ptr, ptr %size_regs.addr, align 8
  %arrayidx19 = getelementptr i32, ptr %22, i64 0
  %23 = load i32, ptr %arrayidx19, align 4
  call void @e1000x_inc_reg_if_not_full(ptr noundef %21, i32 noundef %23)
  br label %if.end

if.end:                                           ; preds = %if.then18, %if.else16
  br label %if.end20

if.end20:                                         ; preds = %if.end, %if.then14
  br label %if.end21

if.end21:                                         ; preds = %if.end20, %if.then10
  br label %if.end22

if.end22:                                         ; preds = %if.end21, %if.then6
  br label %if.end23

if.end23:                                         ; preds = %if.end22, %if.then2
  br label %if.end24

if.end24:                                         ; preds = %if.end23, %if.then
  ret void
}