; Function Attrs: mustprogress nofree norecurse nosync nounwind sspstrong willreturn memory(argmem: readwrite) uwtable
define dso_local void @e1000x_increase_size_stats(ptr noundef captures(none) %mac, ptr noundef readonly captures(none) %size_regs, i32 noundef %size) local_unnamed_addr #5 {
entry:
  %cmp = icmp sgt i32 %size, 1023
  br i1 %cmp, label %if.then, label %if.else

if.then:                                          ; preds = %entry
  %arrayidx = getelementptr i8, ptr %size_regs, i64 20
  %0 = load i32, ptr %arrayidx, align 4
  %idxprom.i = sext i32 %0 to i64
  %arrayidx.i = getelementptr i32, ptr %mac, i64 %idxprom.i
  %1 = load i32, ptr %arrayidx.i, align 4
  %cmp.not.i = icmp eq i32 %1, -1
  br i1 %cmp.not.i, label %if.end24, label %if.then.i

if.then.i:                                        ; preds = %if.then
  %inc.i = add nuw i32 %1, 1
  store i32 %inc.i, ptr %arrayidx.i, align 4
  br label %if.end24

if.else:                                          ; preds = %entry
  %cmp1 = icmp sgt i32 %size, 511
  br i1 %cmp1, label %if.then2, label %if.else4

if.then2:                                         ; preds = %if.else
  %arrayidx3 = getelementptr i8, ptr %size_regs, i64 16
  %2 = load i32, ptr %arrayidx3, align 4
  %idxprom.i16 = sext i32 %2 to i64
  %arrayidx.i17 = getelementptr i32, ptr %mac, i64 %idxprom.i16
  %3 = load i32, ptr %arrayidx.i17, align 4
  %cmp.not.i18 = icmp eq i32 %3, -1
  br i1 %cmp.not.i18, label %if.end24, label %if.then.i19

if.then.i19:                                      ; preds = %if.then2
  %inc.i20 = add nuw i32 %3, 1
  store i32 %inc.i20, ptr %arrayidx.i17, align 4
  br label %if.end24

if.else4:                                         ; preds = %if.else
  %cmp5 = icmp sgt i32 %size, 255
  br i1 %cmp5, label %if.then6, label %if.else8

if.then6:                                         ; preds = %if.else4
  %arrayidx7 = getelementptr i8, ptr %size_regs, i64 12
  %4 = load i32, ptr %arrayidx7, align 4
  %idxprom.i22 = sext i32 %4 to i64
  %arrayidx.i23 = getelementptr i32, ptr %mac, i64 %idxprom.i22
  %5 = load i32, ptr %arrayidx.i23, align 4
  %cmp.not.i24 = icmp eq i32 %5, -1
  br i1 %cmp.not.i24, label %if.end24, label %if.then.i25

if.then.i25:                                      ; preds = %if.then6
  %inc.i26 = add nuw i32 %5, 1
  store i32 %inc.i26, ptr %arrayidx.i23, align 4
  br label %if.end24

if.else8:                                         ; preds = %if.else4
  %cmp9 = icmp sgt i32 %size, 127
  br i1 %cmp9, label %if.then10, label %if.else12

if.then10:                                        ; preds = %if.else8
  %arrayidx11 = getelementptr i8, ptr %size_regs, i64 8
  %6 = load i32, ptr %arrayidx11, align 4
  %idxprom.i28 = sext i32 %6 to i64
  %arrayidx.i29 = getelementptr i32, ptr %mac, i64 %idxprom.i28
  %7 = load i32, ptr %arrayidx.i29, align 4
  %cmp.not.i30 = icmp eq i32 %7, -1
  br i1 %cmp.not.i30, label %if.end24, label %if.then.i31

if.then.i31:                                      ; preds = %if.then10
  %inc.i32 = add nuw i32 %7, 1
  store i32 %inc.i32, ptr %arrayidx.i29, align 4
  br label %if.end24

if.else12:                                        ; preds = %if.else8
  %cmp13 = icmp sgt i32 %size, 64
  br i1 %cmp13, label %if.then14, label %if.else16

if.then14:                                        ; preds = %if.else12
  %arrayidx15 = getelementptr i8, ptr %size_regs, i64 4
  %8 = load i32, ptr %arrayidx15, align 4
  %idxprom.i34 = sext i32 %8 to i64
  %arrayidx.i35 = getelementptr i32, ptr %mac, i64 %idxprom.i34
  %9 = load i32, ptr %arrayidx.i35, align 4
  %cmp.not.i36 = icmp eq i32 %9, -1
  br i1 %cmp.not.i36, label %if.end24, label %if.then.i37

if.then.i37:                                      ; preds = %if.then14
  %inc.i38 = add nuw i32 %9, 1
  store i32 %inc.i38, ptr %arrayidx.i35, align 4
  br label %if.end24

if.else16:                                        ; preds = %if.else12
  %cmp17 = icmp eq i32 %size, 64
  br i1 %cmp17, label %if.then18, label %if.end24

if.then18:                                        ; preds = %if.else16
  %10 = load i32, ptr %size_regs, align 4
  %idxprom.i40 = sext i32 %10 to i64
  %arrayidx.i41 = getelementptr i32, ptr %mac, i64 %idxprom.i40
  %11 = load i32, ptr %arrayidx.i41, align 4
  %cmp.not.i42 = icmp eq i32 %11, -1
  br i1 %cmp.not.i42, label %if.end24, label %if.then.i43

if.then.i43:                                      ; preds = %if.then18
  %inc.i44 = add nuw i32 %11, 1
  store i32 %inc.i44, ptr %arrayidx.i41, align 4
  br label %if.end24

if.end24:                                         ; preds = %if.then.i43, %if.then18, %if.then.i37, %if.then14, %if.then.i31, %if.then10, %if.then.i25, %if.then6, %if.then.i19, %if.then2, %if.then.i, %if.then, %if.else16
  ret void
}